target datalayout = "e-m:e-p270:32:32-p271:32:32-p272:64:64-i64:64-i128:128-f80:128-n8:16:32:64-S128"
target triple = "x86_64-pc-linux-gnu"

%struct.PutByteContext = type { ptr, ptr, ptr, i32 }

; Function Attrs: alwaysinline nounwind uwtable
define internal void @bytestream2_put_byte(ptr noundef %0, i32 noundef %1) #4 {
  %3 = alloca ptr, align 8
  %4 = alloca i32, align 4
  store ptr %0, ptr %3, align 8, !tbaa !60
  store i32 %1, ptr %4, align 4, !tbaa !38
  %5 = load ptr, ptr %3, align 8, !tbaa !60
  %6 = getelementptr inbounds nuw %struct.PutByteContext, ptr %5, i32 0, i32 3
  %7 = load i32, ptr %6, align 8, !tbaa !64
  %8 = icmp ne i32 %7, 0
  br i1 %8, label %33, label %9

9:                                                ; preds = %2
  %10 = load ptr, ptr %3, align 8, !tbaa !60
  %11 = getelementptr inbounds nuw %struct.PutByteContext, ptr %10, i32 0, i32 1
  %12 = load ptr, ptr %11, align 8, !tbaa !63
  %13 = load ptr, ptr %3, align 8, !tbaa !60
  %14 = getelementptr inbounds nuw %struct.PutByteContext, ptr %13, i32 0, i32 0
  %15 = load ptr, ptr %14, align 8, !tbaa !48
  %16 = ptrtoint ptr %12 to i64
  %17 = ptrtoint ptr %15 to i64
  %18 = sub i64 %16, %17
  %19 = icmp sge i64 %18, 1
  br i1 %19, label %20, label %33

20:                                               ; preds = %9
  br label %21

21:                                               ; preds = %20
  %22 = load i32, ptr %4, align 4, !tbaa !38
  %23 = trunc i32 %22 to i8
  %24 = load ptr, ptr %3, align 8, !tbaa !60
  %25 = getelementptr inbounds nuw %struct.PutByteContext, ptr %24, i32 0, i32 0
  %26 = load ptr, ptr %25, align 8, !tbaa !48
  %27 = getelementptr inbounds i8, ptr %26, i64 0
  store i8 %23, ptr %27, align 1, !tbaa !51
  br label %28

28:                                               ; preds = %21
  %29 = load ptr, ptr %3, align 8, !tbaa !60
  %30 = getelementptr inbounds nuw %struct.PutByteContext, ptr %29, i32 0, i32 0
  %31 = load ptr, ptr %30, align 8, !tbaa !48
  %32 = getelementptr inbounds i8, ptr %31, i64 1
  store ptr %32, ptr %30, align 8, !tbaa !48
  br label %36

33:                                               ; preds = %9, %2
  %34 = load ptr, ptr %3, align 8, !tbaa !60
  %35 = getelementptr inbounds nuw %struct.PutByteContext, ptr %34, i32 0, i32 3
  store i32 1, ptr %35, align 8, !tbaa !64
  br label %36

36:                                               ; preds = %33, %28
  ret void
}