; Function Attrs: alwaysinline mustprogress nofree norecurse nosync nounwind willreturn memory(write, argmem: readwrite, inaccessiblemem: none) uwtable
define internal void @bytestream2_put_byte(ptr noundef captures(none) %0, i32 noundef %1) unnamed_addr #4 {
  %3 = getelementptr inbounds nuw i8, ptr %0, i64 24
  %4 = load i32, ptr %3, align 8, !tbaa !39
  %.not = icmp eq i32 %4, 0
  br i1 %.not, label %5, label %17

5:                                                ; preds = %2
  %6 = getelementptr inbounds nuw i8, ptr %0, i64 8
  %7 = load ptr, ptr %6, align 8, !tbaa !38
  %8 = load ptr, ptr %0, align 8, !tbaa !35
  %9 = ptrtoint ptr %7 to i64
  %10 = ptrtoint ptr %8 to i64
  %11 = sub i64 %9, %10
  %12 = icmp sgt i64 %11, 0
  br i1 %12, label %13, label %17

13:                                               ; preds = %5
  %14 = trunc i32 %1 to i8
  store i8 %14, ptr %8, align 1, !tbaa !40
  %15 = load ptr, ptr %0, align 8, !tbaa !35
  %16 = getelementptr inbounds nuw i8, ptr %15, i64 1
  store ptr %16, ptr %0, align 8, !tbaa !35
  br label %18

17:                                               ; preds = %5, %2
  store i32 1, ptr %3, align 8, !tbaa !39
  br label %18

18:                                               ; preds = %17, %13
  ret void
}